target datalayout = "e-m:e-p270:32:32-p271:32:32-p272:64:64-i64:64-i128:128-f80:128-n8:16:32:64-S128"
target triple = "x86_64-pc-linux-gnu"

%struct.CodedBitstreamFragment = type { ptr, i64, i64, ptr, i32, i32, ptr }
%struct.CodedBitstreamUnit = type { i32, ptr, i64, i64, ptr, ptr, ptr }
%struct.AVBufferRef = type { ptr, ptr, i64 }

@.str.25 = private unnamed_addr constant [30 x i8] c"Assertion %s failed at %s:%d\0A\00", align 1
@.str.104 = private unnamed_addr constant [23 x i8] c"libavcodec/cbs_mpeg2.c\00", align 1
@.str.111 = private unnamed_addr constant [11 x i8] c"dp == size\00", align 1

; Function Attrs: nounwind uwtable
define internal i32 @cbs_mpeg2_assemble_fragment(ptr noundef %0, ptr noundef %1) #0 {
  %3 = alloca i32, align 4
  %4 = alloca ptr, align 8
  %5 = alloca ptr, align 8
  %6 = alloca ptr, align 8
  %7 = alloca i64, align 8
  %8 = alloca i64, align 8
  %9 = alloca i32, align 4
  %10 = alloca i32, align 4
  %11 = alloca ptr, align 8
  store ptr %0, ptr %4, align 8, !tbaa !4
  store ptr %1, ptr %5, align 8, !tbaa !9
  call void @llvm.lifetime.start.p0(i64 8, ptr %6) #8
  call void @llvm.lifetime.start.p0(i64 8, ptr %7) #8
  call void @llvm.lifetime.start.p0(i64 8, ptr %8) #8
  call void @llvm.lifetime.start.p0(i64 4, ptr %9) #8
  store i64 0, ptr %7, align 8, !tbaa !21
  store i32 0, ptr %9, align 4, !tbaa !11
  br label %12

12:                                               ; preds = %30, %2
  %13 = load i32, ptr %9, align 4, !tbaa !11
  %14 = load ptr, ptr %5, align 8, !tbaa !9
  %15 = getelementptr inbounds nuw %struct.CodedBitstreamFragment, ptr %14, i32 0, i32 4
  %16 = load i32, ptr %15, align 8, !tbaa !55
  %17 = icmp slt i32 %13, %16
  br i1 %17, label %18, label %33

18:                                               ; preds = %12
  %19 = load ptr, ptr %5, align 8, !tbaa !9
  %20 = getelementptr inbounds nuw %struct.CodedBitstreamFragment, ptr %19, i32 0, i32 6
  %21 = load ptr, ptr %20, align 8, !tbaa !56
  %22 = load i32, ptr %9, align 4, !tbaa !11
  %23 = sext i32 %22 to i64
  %24 = getelementptr inbounds %struct.CodedBitstreamUnit, ptr %21, i64 %23
  %25 = getelementptr inbounds nuw %struct.CodedBitstreamUnit, ptr %24, i32 0, i32 2
  %26 = load i64, ptr %25, align 8, !tbaa !28
  %27 = add i64 3, %26
  %28 = load i64, ptr %7, align 8, !tbaa !21
  %29 = add i64 %28, %27
  store i64 %29, ptr %7, align 8, !tbaa !21
  br label %30

30:                                               ; preds = %18
  %31 = load i32, ptr %9, align 4, !tbaa !11
  %32 = add nsw i32 %31, 1
  store i32 %32, ptr %9, align 4, !tbaa !11
  br label %12, !llvm.loop !57

33:                                               ; preds = %12
  %34 = load i64, ptr %7, align 8, !tbaa !21
  %35 = add i64 %34, 64
  %36 = call ptr @av_buffer_alloc(i64 noundef %35)
  %37 = load ptr, ptr %5, align 8, !tbaa !9
  %38 = getelementptr inbounds nuw %struct.CodedBitstreamFragment, ptr %37, i32 0, i32 3
  store ptr %36, ptr %38, align 8, !tbaa !22
  %39 = load ptr, ptr %5, align 8, !tbaa !9
  %40 = getelementptr inbounds nuw %struct.CodedBitstreamFragment, ptr %39, i32 0, i32 3
  %41 = load ptr, ptr %40, align 8, !tbaa !22
  %42 = icmp ne ptr %41, null
  br i1 %42, label %44, label %43

43:                                               ; preds = %33
  store i32 -12, ptr %3, align 4
  store i32 1, ptr %10, align 4
  br label %110

44:                                               ; preds = %33
  %45 = load ptr, ptr %5, align 8, !tbaa !9
  %46 = getelementptr inbounds nuw %struct.CodedBitstreamFragment, ptr %45, i32 0, i32 3
  %47 = load ptr, ptr %46, align 8, !tbaa !22
  %48 = getelementptr inbounds nuw %struct.AVBufferRef, ptr %47, i32 0, i32 1
  %49 = load ptr, ptr %48, align 8, !tbaa !58
  store ptr %49, ptr %6, align 8, !tbaa !20
  store i64 0, ptr %8, align 8, !tbaa !21
  store i32 0, ptr %9, align 4, !tbaa !11
  br label %50

50:                                               ; preds = %89, %44
  %51 = load i32, ptr %9, align 4, !tbaa !11
  %52 = load ptr, ptr %5, align 8, !tbaa !9
  %53 = getelementptr inbounds nuw %struct.CodedBitstreamFragment, ptr %52, i32 0, i32 4
  %54 = load i32, ptr %53, align 8, !tbaa !55
  %55 = icmp slt i32 %51, %54
  br i1 %55, label %56, label %92

56:                                               ; preds = %50
  call void @llvm.lifetime.start.p0(i64 8, ptr %11) #8
  %57 = load ptr, ptr %5, align 8, !tbaa !9
  %58 = getelementptr inbounds nuw %struct.CodedBitstreamFragment, ptr %57, i32 0, i32 6
  %59 = load ptr, ptr %58, align 8, !tbaa !56
  %60 = load i32, ptr %9, align 4, !tbaa !11
  %61 = sext i32 %60 to i64
  %62 = getelementptr inbounds %struct.CodedBitstreamUnit, ptr %59, i64 %61
  store ptr %62, ptr %11, align 8, !tbaa !25
  %63 = load ptr, ptr %6, align 8, !tbaa !20
  %64 = load i64, ptr %8, align 8, !tbaa !21
  %65 = add i64 %64, 1
  store i64 %65, ptr %8, align 8, !tbaa !21
  %66 = getelementptr inbounds nuw i8, ptr %63, i64 %64
  store i8 0, ptr %66, align 1, !tbaa !61
  %67 = load ptr, ptr %6, align 8, !tbaa !20
  %68 = load i64, ptr %8, align 8, !tbaa !21
  %69 = add i64 %68, 1
  store i64 %69, ptr %8, align 8, !tbaa !21
  %70 = getelementptr inbounds nuw i8, ptr %67, i64 %68
  store i8 0, ptr %70, align 1, !tbaa !61
  %71 = load ptr, ptr %6, align 8, !tbaa !20
  %72 = load i64, ptr %8, align 8, !tbaa !21
  %73 = add i64 %72, 1
  store i64 %73, ptr %8, align 8, !tbaa !21
  %74 = getelementptr inbounds nuw i8, ptr %71, i64 %72
  store i8 1, ptr %74, align 1, !tbaa !61
  %75 = load ptr, ptr %6, align 8, !tbaa !20
  %76 = load i64, ptr %8, align 8, !tbaa !21
  %77 = getelementptr inbounds nuw i8, ptr %75, i64 %76
  %78 = load ptr, ptr %11, align 8, !tbaa !25
  %79 = getelementptr inbounds nuw %struct.CodedBitstreamUnit, ptr %78, i32 0, i32 1
  %80 = load ptr, ptr %79, align 8, !tbaa !26
  %81 = load ptr, ptr %11, align 8, !tbaa !25
  %82 = getelementptr inbounds nuw %struct.CodedBitstreamUnit, ptr %81, i32 0, i32 2
  %83 = load i64, ptr %82, align 8, !tbaa !28
  call void @llvm.memcpy.p0.p0.i64(ptr align 1 %77, ptr align 1 %80, i64 %83, i1 false)
  %84 = load ptr, ptr %11, align 8, !tbaa !25
  %85 = getelementptr inbounds nuw %struct.CodedBitstreamUnit, ptr %84, i32 0, i32 2
  %86 = load i64, ptr %85, align 8, !tbaa !28
  %87 = load i64, ptr %8, align 8, !tbaa !21
  %88 = add i64 %87, %86
  store i64 %88, ptr %8, align 8, !tbaa !21
  call void @llvm.lifetime.end.p0(i64 8, ptr %11) #8
  br label %89

89:                                               ; preds = %56
  %90 = load i32, ptr %9, align 4, !tbaa !11
  %91 = add nsw i32 %90, 1
  store i32 %91, ptr %9, align 4, !tbaa !11
  br label %50, !llvm.loop !62

92:                                               ; preds = %50
  br label %93

93:                                               ; preds = %92
  %94 = load i64, ptr %8, align 8, !tbaa !21
  %95 = load i64, ptr %7, align 8, !tbaa !21
  %96 = icmp eq i64 %94, %95
  br i1 %96, label %98, label %97

97:                                               ; preds = %93
  call void (ptr, i32, ptr, ...) @av_log(ptr noundef null, i32 noundef 0, ptr noundef @.str.25, ptr noundef @.str.111, ptr noundef @.str.104, i32 noundef 391)
  call void @abort() #9
  unreachable

98:                                               ; preds = %93
  br label %99

99:                                               ; preds = %98
  br label %100

100:                                              ; preds = %99
  %101 = load ptr, ptr %6, align 8, !tbaa !20
  %102 = load i64, ptr %7, align 8, !tbaa !21
  %103 = getelementptr inbounds nuw i8, ptr %101, i64 %102
  call void @llvm.memset.p0.i64(ptr align 1 %103, i8 0, i64 64, i1 false)
  %104 = load ptr, ptr %6, align 8, !tbaa !20
  %105 = load ptr, ptr %5, align 8, !tbaa !9
  %106 = getelementptr inbounds nuw %struct.CodedBitstreamFragment, ptr %105, i32 0, i32 0
  store ptr %104, ptr %106, align 8, !tbaa !13
  %107 = load i64, ptr %7, align 8, !tbaa !21
  %108 = load ptr, ptr %5, align 8, !tbaa !9
  %109 = getelementptr inbounds nuw %struct.CodedBitstreamFragment, ptr %108, i32 0, i32 1
  store i64 %107, ptr %109, align 8, !tbaa !19
  store i32 0, ptr %3, align 4
  store i32 1, ptr %10, align 4
  br label %110

110:                                              ; preds = %100, %43
  call void @llvm.lifetime.end.p0(i64 4, ptr %9) #8
  call void @llvm.lifetime.end.p0(i64 8, ptr %8) #8
  call void @llvm.lifetime.end.p0(i64 8, ptr %7) #8
  call void @llvm.lifetime.end.p0(i64 8, ptr %6) #8
  %111 = load i32, ptr %3, align 4
  ret i32 %111
}