; Function Attrs: nounwind uwtable
define internal range(i32 -12, 1) i32 @cbs_mpeg2_assemble_fragment(ptr readnone captures(none) %0, ptr noundef captures(none) %1) #0 {
  %3 = getelementptr inbounds nuw i8, ptr %1, i64 32
  %4 = load i32, ptr %3, align 8, !tbaa !169
  %5 = icmp sgt i32 %4, 0
  br i1 %5, label %.lr.ph, label %._crit_edge

.lr.ph:                                           ; preds = %2
  %6 = getelementptr inbounds nuw i8, ptr %1, i64 40
  %7 = load ptr, ptr %6, align 8, !tbaa !170
  %wide.trip.count = zext nneg i32 %4 to i64
  br label %8

8:                                                ; preds = %.lr.ph, %8
  %indvars.iv = phi i64 [ 0, %.lr.ph ], [ %indvars.iv.next, %8 ]
  %.03739 = phi i64 [ 0, %.lr.ph ], [ %12, %8 ]
  %9 = getelementptr inbounds nuw %struct.CodedBitstreamUnit, ptr %7, i64 %indvars.iv, i32 2
  %10 = load i64, ptr %9, align 8, !tbaa !21
  %11 = add i64 %.03739, 3
  %12 = add i64 %11, %10
  %indvars.iv.next = add nuw nsw i64 %indvars.iv, 1
  %exitcond.not = icmp eq i64 %indvars.iv.next, %wide.trip.count
  br i1 %exitcond.not, label %._crit_edge, label %8, !llvm.loop !171

._crit_edge:                                      ; preds = %8, %2
  %.037.lcssa = phi i64 [ 0, %2 ], [ %12, %8 ]
  %13 = add i64 %.037.lcssa, 64
  %14 = tail call ptr @av_buffer_alloc(i64 noundef %13) #7
  %15 = getelementptr inbounds nuw i8, ptr %1, i64 24
  store ptr %14, ptr %15, align 8, !tbaa !16
  %.not = icmp eq ptr %14, null
  br i1 %.not, label %44, label %16

16:                                               ; preds = %._crit_edge
  %17 = getelementptr inbounds nuw i8, ptr %14, i64 8
  %18 = load ptr, ptr %17, align 8, !tbaa !69
  %19 = load i32, ptr %3, align 8, !tbaa !169
  %20 = icmp sgt i32 %19, 0
  br i1 %20, label %.lr.ph44, label %._crit_edge45

.lr.ph44:                                         ; preds = %16
  %21 = getelementptr inbounds nuw i8, ptr %1, i64 40
  br label %22

22:                                               ; preds = %.lr.ph44, %22
  %indvars.iv49 = phi i64 [ 0, %.lr.ph44 ], [ %indvars.iv.next50, %22 ]
  %.03641 = phi i64 [ 0, %.lr.ph44 ], [ %35, %22 ]
  %23 = load ptr, ptr %21, align 8, !tbaa !170
  %24 = getelementptr inbounds nuw %struct.CodedBitstreamUnit, ptr %23, i64 %indvars.iv49
  %25 = getelementptr inbounds nuw i8, ptr %18, i64 %.03641
  store i8 0, ptr %25, align 1, !tbaa !45
  %26 = getelementptr i8, ptr %25, i64 1
  store i8 0, ptr %26, align 1, !tbaa !45
  %27 = add i64 %.03641, 3
  %28 = getelementptr i8, ptr %25, i64 2
  store i8 1, ptr %28, align 1, !tbaa !45
  %29 = getelementptr inbounds nuw i8, ptr %18, i64 %27
  %30 = getelementptr inbounds nuw i8, ptr %24, i64 8
  %31 = load ptr, ptr %30, align 8, !tbaa !19
  %32 = getelementptr inbounds nuw i8, ptr %24, i64 16
  %33 = load i64, ptr %32, align 8, !tbaa !21
  tail call void @llvm.memcpy.p0.p0.i64(ptr align 1 %29, ptr align 1 %31, i64 %33, i1 false)
  %34 = load i64, ptr %32, align 8, !tbaa !21
  %35 = add i64 %34, %27
  %indvars.iv.next50 = add nuw nsw i64 %indvars.iv49, 1
  %36 = load i32, ptr %3, align 8, !tbaa !169
  %37 = sext i32 %36 to i64
  %38 = icmp slt i64 %indvars.iv.next50, %37
  br i1 %38, label %22, label %._crit_edge45, !llvm.loop !172

._crit_edge45:                                    ; preds = %22, %16
  %.036.lcssa = phi i64 [ 0, %16 ], [ %35, %22 ]
  %39 = icmp eq i64 %.036.lcssa, %.037.lcssa
  br i1 %39, label %41, label %40

40:                                               ; preds = %._crit_edge45
  tail call void (ptr, i32, ptr, ...) @av_log(ptr noundef null, i32 noundef 0, ptr noundef nonnull @.str.25, ptr noundef nonnull @.str.111, ptr noundef nonnull @.str.104, i32 noundef 391) #7
  tail call void @abort() #8
  unreachable

41:                                               ; preds = %._crit_edge45
  %42 = getelementptr inbounds nuw i8, ptr %18, i64 %.037.lcssa
  tail call void @llvm.memset.p0.i64(ptr noundef nonnull align 1 dereferenceable(64) %42, i8 0, i64 64, i1 false)
  store ptr %18, ptr %1, align 8, !tbaa !8
  %43 = getelementptr inbounds nuw i8, ptr %1, i64 8
  store i64 %.037.lcssa, ptr %43, align 8, !tbaa !15
  br label %44

44:                                               ; preds = %._crit_edge, %41
  %.0 = phi i32 [ 0, %41 ], [ -12, %._crit_edge ]
  ret i32 %.0
}